target datalayout = "e-m:e-p270:32:32-p271:32:32-p272:64:64-i64:64-i128:128-f80:128-n8:16:32:64-S128"
target triple = "x86_64-pc-linux-gnu"

; Function Attrs: mustprogress uwtable
define noundef zeroext i1 @_Z10RenameFilePKwS0_(ptr noundef %0, ptr noundef %1) #0 {
  %3 = alloca ptr, align 8
  %4 = alloca ptr, align 8
  %5 = alloca [2048 x i8], align 16
  %6 = alloca [2048 x i8], align 16
  %7 = alloca i8, align 1
  store ptr %0, ptr %3, align 8
  store ptr %1, ptr %4, align 8
  %8 = load ptr, ptr %3, align 8
  %9 = getelementptr inbounds [2048 x i8], ptr %5, i64 0, i64 0
  %10 = call noundef zeroext i1 @_Z10WideToCharPKwPcm(ptr noundef %8, ptr noundef %9, i64 noundef 2048)
  %11 = load ptr, ptr %4, align 8
  %12 = getelementptr inbounds [2048 x i8], ptr %6, i64 0, i64 0
  %13 = call noundef zeroext i1 @_Z10WideToCharPKwPcm(ptr noundef %11, ptr noundef %12, i64 noundef 2048)
  %14 = getelementptr inbounds [2048 x i8], ptr %5, i64 0, i64 0
  %15 = getelementptr inbounds [2048 x i8], ptr %6, i64 0, i64 0
  %16 = call i32 @rename(ptr noundef %14, ptr noundef %15) #9
  %17 = icmp eq i32 %16, 0
  %18 = zext i1 %17 to i8
  store i8 %18, ptr %7, align 1
  %19 = load i8, ptr %7, align 1
  %20 = trunc i8 %19 to i1
  ret i1 %20
}