; Function Attrs: mustprogress uwtable
define noundef zeroext i1 @_Z10RenameFilePKwS0_(ptr noundef %0, ptr noundef %1) local_unnamed_addr #0 {
  %3 = alloca [2048 x i8], align 16
  %4 = alloca [2048 x i8], align 16
  %5 = call noundef zeroext i1 @_Z10WideToCharPKwPcm(ptr noundef %0, ptr noundef nonnull %3, i64 noundef 2048)
  %6 = call noundef zeroext i1 @_Z10WideToCharPKwPcm(ptr noundef %1, ptr noundef nonnull %4, i64 noundef 2048)
  %7 = call i32 @rename(ptr noundef nonnull %3, ptr noundef nonnull %4) #14
  %8 = icmp eq i32 %7, 0
  ret i1 %8
}